(dp1
S'files'
p2
(dp3
S'cse491_env_lib_python2_7_site-packages_markupsafe__compat'
p4
(dp5
S'index'
p6
(dp7
S'html_filename'
p8
S'cse491_env_lib_python2_7_site-packages_markupsafe__compat.html'
p9
sS'name'
p10
S'cse491.env/lib/python2.7/site-packages/markupsafe/_compat'
p11
sS'nums'
p12
ccopy_reg
_reconstructor
p13
(ccoverage.results
Numbers
p14
c__builtin__
object
p15
NtRp16
(dp17
S'n_files'
p18
I1
sS'n_branches'
p19
I0
sS'n_statements'
p20
I12
sS'n_excluded'
p21
I0
sS'n_partial_branches'
p22
I0
sS'n_missing'
p23
I4
sS'n_missing_branches'
p24
I0
sbssS'hash'
p25
S'\x8c\xb6\xc1\xcd\x85\x93\x83\xddWpn\xaaf\x8a2,'
p26
ssS'cse491_env_lib_python2_7_site-packages_jinja2_optimizer'
p27
(dp28
g6
(dp29
g8
S'cse491_env_lib_python2_7_site-packages_jinja2_optimizer.html'
p30
sg10
S'cse491.env/lib/python2.7/site-packages/jinja2/optimizer'
p31
sg12
g13
(g14
g15
NtRp32
(dp33
g18
I1
sg19
I0
sg20
I31
sg21
I0
sg22
I0
sg23
I13
sg24
I0
sbssg25
S'\x0cS\xf5\x96\x8a\xc9|~\xef\xbe\xcb\xa2>\x0bk\xca'
p34
ssS'cse491_env_lib_python2_7_site-packages_jinja2_visitor'
p35
(dp36
g6
(dp37
g8
S'cse491_env_lib_python2_7_site-packages_jinja2_visitor.html'
p38
sg10
S'cse491.env/lib/python2.7/site-packages/jinja2/visitor'
p39
sg12
g13
(g14
g15
NtRp40
(dp41
g18
I1
sg19
I0
sg20
I40
sg21
I0
sg22
I0
sg23
I8
sg24
I0
sbssg25
S'+&9m\xe7\x0f\xabq\x87\xaf;EL\x84#i'
p42
ssS'cse491_env_lib_python2_7_site-packages_jinja2_nodes'
p43
(dp44
g6
(dp45
S'html_filename'
p46
S'cse491_env_lib_python2_7_site-packages_jinja2_nodes.html'
p47
sS'name'
p48
S'cse491.env/lib/python2.7/site-packages/jinja2/nodes'
p49
sS'nums'
p50
g13
(g14
g15
NtRp51
(dp52
g18
I1
sg19
I0
sg20
I423
sg21
I0
sg22
I0
sg23
I172
sg24
I0
sbssg25
S'\x84\x1d0\xb0\xa1\xef\xb5\x04R\xffu\xd6\xa8\xbd\xf1-'
p53
ssS'app'
p54
(dp55
S'index'
p56
(dp57
S'html_filename'
p58
S'app.html'
p59
sS'name'
p60
S'app'
p61
sS'nums'
p62
g13
(g14
g15
NtRp63
(dp64
g18
I1
sg19
I0
sg20
I83
sg21
I0
sg22
I0
sg23
I1
sg24
I0
sbssS'hash'
p65
S"\x9e\xc1\xf7|\xaa\x15\xe6\x8d&'EyJ)R\n"
p66
ssS'cse491_env_lib_python2_7_site-packages_nose_plugins_logcapture'
p67
(dp68
g6
(dp69
g8
S'cse491_env_lib_python2_7_site-packages_nose_plugins_logcapture.html'
p70
sg10
S'cse491.env/lib/python2.7/site-packages/nose/plugins/logcapture'
p71
sg12
g13
(g14
g15
NtRp72
(dp73
g18
I1
sg19
I0
sg20
I125
sg21
I0
sg22
I0
sg23
I114
sg24
I0
sbssg25
S'\xccN\xe6\x86\x88`\x1e\xb7\xeb\xf4\x14^\x8f\xa5-\xf2'
p74
ssS'cse491_env_lib_python2_7_site-packages_nose_result'
p75
(dp76
g6
(dp77
g8
S'cse491_env_lib_python2_7_site-packages_nose_result.html'
p78
sg10
S'cse491.env/lib/python2.7/site-packages/nose/result'
p79
sg12
g13
(g14
g15
NtRp80
(dp81
g18
I1
sg19
I0
sg20
I131
sg21
I0
sg22
I0
sg23
I119
sg24
I0
sbssg25
S'\xbfT\xf7\xbd\xe5\x8b\xec~E\x94\xba\xbd\xd9\xcc\x84\x97'
p82
ssS'cse491_env_lib_python2_7_site-packages_nose_pyversion'
p83
(dp84
g6
(dp85
g8
S'cse491_env_lib_python2_7_site-packages_nose_pyversion.html'
p86
sg10
S'cse491.env/lib/python2.7/site-packages/nose/pyversion'
p87
sg12
g13
(g14
g15
NtRp88
(dp89
g18
I1
sg19
I0
sg20
I92
sg21
I0
sg22
I0
sg23
I88
sg24
I0
sbssg25
S'\xca^\x90\xcb%\xe3\xfdu\xf3\x85\x02?C\re\xa7'
p90
ssS'cse491_env_lib_python2_7_site-packages_nose_suite'
p91
(dp92
g6
(dp93
g8
S'cse491_env_lib_python2_7_site-packages_nose_suite.html'
p94
sg10
S'cse491.env/lib/python2.7/site-packages/nose/suite'
p95
sg12
g13
(g14
g15
NtRp96
(dp97
g18
I1
sg19
I0
sg20
I394
sg21
I0
sg22
I0
sg23
I236
sg24
I0
sbssg25
S'd\x00\xf4\xb4)y\xaa\xed\xb1\x93C\xb5\xeb\x7f\xad\xd6'
p98
ssS'cse491_env_lib_python2_7_site-packages_markupsafe___init__'
p99
(dp100
g6
(dp101
g8
S'cse491_env_lib_python2_7_site-packages_markupsafe___init__.html'
p102
sg10
S'cse491.env/lib/python2.7/site-packages/markupsafe/__init__'
p103
sg12
g13
(g14
g15
NtRp104
(dp105
g18
I1
sg19
I0
sg20
I112
sg21
I0
sg22
I0
sg23
I58
sg24
I0
sbssg25
S'4\x0c\xad\x16\xa7a\x86\xb4\x07\xack\x85\xc1\xe3\xd5\xd3'
p106
ssS'cse491_env_lib_python2_7_site-packages_nose_plugins_errorclass'
p107
(dp108
g6
(dp109
g8
S'cse491_env_lib_python2_7_site-packages_nose_plugins_errorclass.html'
p110
sg10
S'cse491.env/lib/python2.7/site-packages/nose/plugins/errorclass'
p111
sg12
g13
(g14
g15
NtRp112
(dp113
g18
I1
sg19
I0
sg20
I65
sg21
I0
sg22
I0
sg23
I59
sg24
I0
sbssg25
S'4\x13v=\xdeK!\x190-\xf5\x00\xcd\n\x80_'
p114
ssS'cse491_env_lib_python2_7_site-packages_nose_proxy'
p115
(dp116
g6
(dp117
g8
S'cse491_env_lib_python2_7_site-packages_nose_proxy.html'
p118
sg10
S'cse491.env/lib/python2.7/site-packages/nose/proxy'
p119
sg12
g13
(g14
g15
NtRp120
(dp121
g18
I1
sg19
I0
sg20
I108
sg21
I0
sg22
I0
sg23
I75
sg24
I0
sbssg25
S'\xa8?\x17\xc2j\xad\x13\xe7\x98w\xd3~\xe8\n\xc1\xe2'
p122
ssS'cse491_env_lib_python2_7_site-packages_nose_importer'
p123
(dp124
g6
(dp125
g8
S'cse491_env_lib_python2_7_site-packages_nose_importer.html'
p126
sg10
S'cse491.env/lib/python2.7/site-packages/nose/importer'
p127
sg12
g13
(g14
g15
NtRp128
(dp129
g18
I1
sg19
I0
sg20
I101
sg21
I0
sg22
I0
sg23
I53
sg24
I0
sbssg25
S'\x9d\xbe<\xcdi\xa6=`!\xf4mX\xd7\x1a/*'
p130
ssS'cse491_env_lib_python2_7_site-packages_jinja2_environment'
p131
(dp132
g6
(dp133
g46
S'cse491_env_lib_python2_7_site-packages_jinja2_environment.html'
p134
sg48
S'cse491.env/lib/python2.7/site-packages/jinja2/environment'
p135
sg50
g13
(g14
g15
NtRp136
(dp137
g18
I1
sg19
I0
sg20
I488
sg21
I0
sg22
I0
sg23
I296
sg24
I0
sbssg25
S'\xa3wr\x88\x95j#Bnc\xa3\xcf-\x03\xd6\xef'
p138
ssS'cse491_env_lib_python2_7_site-packages_nose_case'
p139
(dp140
g6
(dp141
g8
S'cse491_env_lib_python2_7_site-packages_nose_case.html'
p142
sg10
S'cse491.env/lib/python2.7/site-packages/nose/case'
p143
sg12
g13
(g14
g15
NtRp144
(dp145
g18
I1
sg19
I0
sg20
I204
sg21
I0
sg22
I0
sg23
I163
sg24
I0
sbssg25
S'\xedk3\xdb{\xf7\x95\xec\xcf\x98\xf2\xad46\xa7\xae'
p146
ssS'cse491_env_lib_python2_7_site-packages_jinja2_utils'
p147
(dp148
g6
(dp149
g8
S'cse491_env_lib_python2_7_site-packages_jinja2_utils.html'
p150
sg10
S'cse491.env/lib/python2.7/site-packages/jinja2/utils'
p151
sg12
g13
(g14
g15
NtRp152
(dp153
g18
I1
sg19
I0
sg20
I263
sg21
I0
sg22
I0
sg23
I166
sg24
I0
sbssg25
S'P\xab\x1c\xd0F,\x89_G\xf2o\x13\xa1|\xf4\xa8'
p154
ssS'cse491_env_lib_python2_7_site-packages_jinja2___init__'
p155
(dp156
g6
(dp157
g8
S'cse491_env_lib_python2_7_site-packages_jinja2___init__.html'
p158
sg10
S'cse491.env/lib/python2.7/site-packages/jinja2/__init__'
p159
sg12
g13
(g14
g15
NtRp160
(dp161
g18
I1
sg19
I0
sg20
I11
sg21
I0
sg22
I0
sg23
I0
sg24
I0
sbssg25
S'\xc2$\x8d\x9e.l\x1b;A\t,G\xf5\xf12\x91'
p162
ssS'cse491_env_lib_python2_7_site-packages_nose_plugins_capture'
p163
(dp164
g6
(dp165
g8
S'cse491_env_lib_python2_7_site-packages_nose_plugins_capture.html'
p166
sg10
S'cse491.env/lib/python2.7/site-packages/nose/plugins/capture'
p167
sg12
g13
(g14
g15
NtRp168
(dp169
g18
I1
sg19
I0
sg20
I66
sg21
I0
sg22
I0
sg23
I58
sg24
I0
sbssg25
S'A\x0b\x9b\xf8\x01]\x89\xc4!FIjJ\xc0\x9a\xd5'
p170
ssS'cse491_env_lib_python2_7_site-packages_jinja2__compat'
p171
(dp172
g6
(dp173
g8
S'cse491_env_lib_python2_7_site-packages_jinja2__compat.html'
p174
sg10
S'cse491.env/lib/python2.7/site-packages/jinja2/_compat'
p175
sg12
g13
(g14
g15
NtRp176
(dp177
g18
I1
sg19
I0
sg20
I98
sg21
I0
sg22
I0
sg23
I35
sg24
I0
sbssg25
S'@u\t\x99\xbd\xbah\xdc\xa2\x9a\x18b\x12T\x89\x93'
p178
ssS'cse491_env_lib_python2_7_site-packages_jinja2_parser'
p179
(dp180
g6
(dp181
g46
S'cse491_env_lib_python2_7_site-packages_jinja2_parser.html'
p182
sg48
S'cse491.env/lib/python2.7/site-packages/jinja2/parser'
p183
sg50
g13
(g14
g15
NtRp184
(dp185
g18
I1
sg19
I0
sg20
I646
sg21
I0
sg22
I0
sg23
I380
sg24
I0
sbssg25
S'\xdf\xf5w\xa1\xaf\xac\xae\x98\xb5\xb9K.!U*\xae'
p186
ssS'cse491_env_lib_python2_7_site-packages_jinja2_defaults'
p187
(dp188
g6
(dp189
g8
S'cse491_env_lib_python2_7_site-packages_jinja2_defaults.html'
p190
sg10
S'cse491.env/lib/python2.7/site-packages/jinja2/defaults'
p191
sg12
g13
(g14
g15
NtRp192
(dp193
g18
I1
sg19
I0
sg20
I19
sg21
I0
sg22
I0
sg23
I0
sg24
I0
sbssg25
S'\xe2s1\x07\x11\xcc\xb8t@\xa5n<\x98\x97"j'
p194
ssS'cse491_env_lib_python2_7_site-packages_jinja2_compiler'
p195
(dp196
g6
(dp197
g46
S'cse491_env_lib_python2_7_site-packages_jinja2_compiler.html'
p198
sg48
S'cse491.env/lib/python2.7/site-packages/jinja2/compiler'
p199
sg50
g13
(g14
g15
NtRp200
(dp201
g18
I1
sg19
I0
sg20
I1030
sg21
I0
sg22
I0
sg23
I654
sg24
I0
sbssg25
S'\x9d"\xa16\xf8\xe2\r\xe6\x90\xaf\x1d\x13\xf6FM\xce'
p202
ssS'cse491_env_lib_python2_7_site-packages_nose_plugins_manager'
p203
(dp204
g6
(dp205
g8
S'cse491_env_lib_python2_7_site-packages_nose_plugins_manager.html'
p206
sg10
S'cse491.env/lib/python2.7/site-packages/nose/plugins/manager'
p207
sg12
g13
(g14
g15
NtRp208
(dp209
g18
I1
sg19
I0
sg20
I265
sg21
I0
sg22
I0
sg23
I234
sg24
I0
sbssg25
S"\x06\x86\xacD~?\xc2d\x08C\xd2'xe5\xf8"
p210
ssS'cse491_env_lib_python2_7_site-packages_jinja2_lexer'
p211
(dp212
g6
(dp213
g46
S'cse491_env_lib_python2_7_site-packages_jinja2_lexer.html'
p214
sg48
S'cse491.env/lib/python2.7/site-packages/jinja2/lexer'
p215
sg50
g13
(g14
g15
NtRp216
(dp217
g18
I1
sg19
I0
sg20
I346
sg21
I0
sg22
I0
sg23
I89
sg24
I0
sbssg25
S'\x00\x80\x84\xc5\x13\xa9.\x15V\x03U\x0e\xfe\xd0\xa6\xa5'
p218
ssS'cse491_env_lib_python2_7_site-packages_nose_plugins_cover'
p219
(dp220
g6
(dp221
g8
S'cse491_env_lib_python2_7_site-packages_nose_plugins_cover.html'
p222
sg10
S'cse491.env/lib/python2.7/site-packages/nose/plugins/cover'
p223
sg12
g13
(g14
g15
NtRp224
(dp225
g18
I1
sg19
I0
sg20
I138
sg21
I0
sg22
I0
sg23
I134
sg24
I0
sbssg25
S'WX\x92{\x8f\x10\xee\xbe\xb6d\xc4M\xe3O\x07\x91'
p226
ssS'test_server'
p227
(dp228
g6
(dp229
g58
S'test_server.html'
p230
sg60
S'test_server'
p231
sg62
g13
(g14
g15
NtRp232
(dp233
g18
I1
sg19
I0
sg20
I73
sg21
I0
sg22
I0
sg23
I0
sg24
I0
sbssg25
S'\xd2G\xf5\x90\xdd\xac\xd7\x8e\xdb\xb0+p\x9d\xc8\xee5'
p234
ssS'cse491_env_lib_python2_7_site-packages_jinja2_bccache'
p235
(dp236
g6
(dp237
g8
S'cse491_env_lib_python2_7_site-packages_jinja2_bccache.html'
p238
sg10
S'cse491.env/lib/python2.7/site-packages/jinja2/bccache'
p239
sg12
g13
(g14
g15
NtRp240
(dp241
g18
I1
sg19
I0
sg20
I143
sg21
I0
sg22
I0
sg23
I101
sg24
I0
sbssg25
S"\xc5\x0f'\xccc\xaf\xd1=|\xeey\xd9&\xf3>\x92"
p242
ssS'cse491_env_lib_python2_7_site-packages_jinja2_exceptions'
p243
(dp244
g6
(dp245
g8
S'cse491_env_lib_python2_7_site-packages_jinja2_exceptions.html'
p246
sg10
S'cse491.env/lib/python2.7/site-packages/jinja2/exceptions'
p247
sg12
g13
(g14
g15
NtRp248
(dp249
g18
I1
sg19
I0
sg20
I70
sg21
I0
sg22
I0
sg23
I47
sg24
I0
sbssg25
S'\xf3z\xf9\xb0i}\xb8\xf8a\x05\xda\n?\x1c\xfb\x1d'
p250
ssS'cse491_env_lib_python2_7_site-packages_nose_selector'
p251
(dp252
g6
(dp253
g8
S'cse491_env_lib_python2_7_site-packages_nose_selector.html'
p254
sg10
S'cse491.env/lib/python2.7/site-packages/nose/selector'
p255
sg12
g13
(g14
g15
NtRp256
(dp257
g18
I1
sg19
I0
sg20
I134
sg21
I0
sg22
I0
sg23
I68
sg24
I0
sbssg25
S'\xfb\xe8\x1fq\xc1\xe8\x1d\xc0\x17/\x9e\x98\xc8\x04\xbf&'
p258
ssS'cse491_env_lib_python2_7_site-packages_nose_loader'
p259
(dp260
g6
(dp261
g8
S'cse491_env_lib_python2_7_site-packages_nose_loader.html'
p262
sg10
S'cse491.env/lib/python2.7/site-packages/nose/loader'
p263
sg12
g13
(g14
g15
NtRp264
(dp265
g18
I1
sg19
I0
sg20
I351
sg21
I0
sg22
I0
sg23
I235
sg24
I0
sbssg25
S'\x80\xc8\r\xe9\xfd\xbb\x94\xc2_\xcf=\xe9)\x9e(\xa7'
p266
ssS'cse491_env_lib_python2_7_site-packages_jinja2_filters'
p267
(dp268
g6
(dp269
g8
S'cse491_env_lib_python2_7_site-packages_jinja2_filters.html'
p270
sg10
S'cse491.env/lib/python2.7/site-packages/jinja2/filters'
p271
sg12
g13
(g14
g15
NtRp272
(dp273
g18
I1
sg19
I0
sg20
I343
sg21
I0
sg22
I0
sg23
I265
sg24
I0
sbssg25
S'\xef#\xc6\xad\x92\x96v^M\x9d\xf0\xfeR\xcal\xc5'
p274
ssS'cse491_env_lib_python2_7_site-packages_jinja2_tests'
p275
(dp276
g6
(dp277
g8
S'cse491_env_lib_python2_7_site-packages_jinja2_tests.html'
p278
sg10
S'cse491.env/lib/python2.7/site-packages/jinja2/tests'
p279
sg12
g13
(g14
g15
NtRp280
(dp281
g18
I1
sg19
I0
sg20
I47
sg21
I0
sg22
I0
sg23
I24
sg24
I0
sbssg25
S'\xb1[}x+R\x19\xd1\xe4\xc4\xf3\xcb"5\xe8\xfd'
p282
ssS'server'
p283
(dp284
g6
(dp285
g58
S'server.html'
p286
sg60
S'server'
p287
sg62
g13
(g14
g15
NtRp288
(dp289
g18
I1
sg19
I0
sg20
I78
sg21
I0
sg22
I0
sg23
I5
sg24
I0
sbssg25
S'\x8c\xce\xcfn\xc2= P\xfa\xcf\x84\xab\x02\xf1\x81\x82'
p290
ssS'cse491_env_lib_python2_7_site-packages_jinja2_runtime'
p291
(dp292
g6
(dp293
g8
S'cse491_env_lib_python2_7_site-packages_jinja2_runtime.html'
p294
sg10
S'cse491.env/lib/python2.7/site-packages/jinja2/runtime'
p295
sg12
g13
(g14
g15
NtRp296
(dp297
g18
I1
sg19
I0
sg20
I291
sg21
I0
sg22
I0
sg23
I175
sg24
I0
sbssg25
S'P\xedP6\xe1\x01Q\xf6zG\xbd\x077If\xf4'
p298
ssS'cse491_env_lib_python2_7_site-packages_nose_util'
p299
(dp300
g6
(dp301
g8
S'cse491_env_lib_python2_7_site-packages_nose_util.html'
p302
sg10
S'cse491.env/lib/python2.7/site-packages/nose/util'
p303
sg12
g13
(g14
g15
NtRp304
(dp305
g18
I1
sg19
I0
sg20
I341
sg21
I0
sg22
I0
sg23
I274
sg24
I0
sbssg25
S'WBA\xb2\xb9\xd8\x91A\t\xc5\xba\xfb$\xe6\x11\xe3'
p306
ssS'cse491_env_lib_python2_7_site-packages_nose_core'
p307
(dp308
g6
(dp309
g8
S'cse491_env_lib_python2_7_site-packages_nose_core.html'
p310
sg10
S'cse491.env/lib/python2.7/site-packages/nose/core'
p311
sg12
g13
(g14
g15
NtRp312
(dp313
g18
I1
sg19
I0
sg20
I162
sg21
I0
sg22
I0
sg23
I140
sg24
I0
sbssg25
S'\x92\xc0\x98\xbb\xb98\xd2F\xc0\x06p\xc9\xd3\xe5\x1cP'
p314
ssS'cse491_env_lib_python2_7_site-packages_jinja2_loaders'
p315
(dp316
g6
(dp317
g8
S'cse491_env_lib_python2_7_site-packages_jinja2_loaders.html'
p318
sg10
S'cse491.env/lib/python2.7/site-packages/jinja2/loaders'
p319
sg12
g13
(g14
g15
NtRp320
(dp321
g18
I1
sg19
I0
sg20
I221
sg21
I0
sg22
I0
sg23
I138
sg24
I0
sbssg25
S'_\xee\xfbA\xd4\xf8J\x08L\x0c\xf6\xf9\xf8\xbc\xd9\xd8'
p322
sssS'version'
p323
S'3.7.1'
p324
sS'settings'
p325
S'\x98\xa8x\xfe"r\xb5K\x98\xb1N\\\x99\x9e\xf3\xe5'
p326
sS'format'
p327
I1
s.